; Function Attrs: mustprogress nounwind uwtable
define dso_local void @_ZN4llvm14PassNameParserD2Ev(ptr noundef nonnull align 8 dereferenceable(488) initializes((8, 16)) %0) unnamed_addr #0 align 2 {
  %2 = getelementptr inbounds nuw i8, ptr %0, i64 8
  store ptr getelementptr inbounds nuw inrange(-16, 64) (i8, ptr @_ZTVN4llvm2cl6parserIPKNS_8PassInfoEEE, i64 16), ptr %2, align 8
  %3 = getelementptr inbounds nuw i8, ptr %0, i64 24
  %4 = tail call noundef i64 @_ZNK4llvm15SmallVectorBaseIjE4sizeEv(ptr noundef nonnull align 8 dereferenceable(464) %3) #17
  %5 = load ptr, ptr %3, align 8
  %6 = getelementptr inbounds nuw i8, ptr %0, i64 40
  %7 = icmp eq ptr %5, %6
  br i1 %7, label %_ZN4llvm2cl6parserIPKNS_8PassInfoEED2Ev.exit, label %8

8:                                                ; preds = %1
  tail call void @free(ptr noundef %5) #17
  br label %_ZN4llvm2cl6parserIPKNS_8PassInfoEED2Ev.exit

_ZN4llvm2cl6parserIPKNS_8PassInfoEED2Ev.exit:     ; preds = %1, %8
  ret void
}